target datalayout = "e-m:e-p270:32:32-p271:32:32-p272:64:64-i64:64-i128:128-f80:128-n8:16:32:64-S128"
target triple = "x86_64-unknown-linux-gnu"

%"class.icu_75::Formattable" = type { %"class.icu_75::UObject", %union.anon, ptr, ptr, i32, %"class.icu_75::UnicodeString" }
%"class.icu_75::UObject" = type { ptr }
%union.anon = type { %struct.anon }
%struct.anon = type { ptr, i32 }
%"class.icu_75::UnicodeString" = type { %"class.icu_75::Replaceable", %"union.icu_75::UnicodeString::StackBufferOrFields" }
%"class.icu_75::Replaceable" = type { %"class.icu_75::UObject" }
%"union.icu_75::UnicodeString::StackBufferOrFields" = type { %struct.anon.1, [32 x i8] }
%struct.anon.1 = type { i16, i32, i32, ptr }

; Function Attrs: mustprogress nounwind uwtable
define internal noundef signext i8 @_ZL9U_SUCCESS10UErrorCode(i32 noundef %code) #0 {
entry:
  %code.addr = alloca i32, align 4
  store i32 %code, ptr %code.addr, align 4
  %0 = load i32, ptr %code.addr, align 4
  %cmp = icmp sle i32 %0, 0
  %conv = zext i1 %cmp to i8
  ret i8 %conv
}

; Function Attrs: mustprogress nounwind uwtable
define linkonce_odr noundef ptr @_ZN6icu_7511Formattable14toUFormattableEv(ptr noundef nonnull align 8 dereferenceable(112) %this) #0 comdat align 2 {
entry:
  %this.addr = alloca ptr, align 8
  store ptr %this, ptr %this.addr, align 8
  %this1 = load ptr, ptr %this.addr, align 8
  ret ptr %this1
}

; Function Attrs: mustprogress nounwind uwtable
define linkonce_odr noundef nonnull align 8 dereferenceable(112) ptr @_ZN6icu_7511FormattableixEi(ptr noundef nonnull align 8 dereferenceable(112) %this, i32 noundef %index) #0 comdat align 2 {
entry:
  %this.addr = alloca ptr, align 8
  %index.addr = alloca i32, align 4
  store ptr %this, ptr %this.addr, align 8
  store i32 %index, ptr %index.addr, align 4
  %this1 = load ptr, ptr %this.addr, align 8
  %fValue = getelementptr inbounds %"class.icu_75::Formattable", ptr %this1, i32 0, i32 1
  %fArray = getelementptr inbounds %struct.anon, ptr %fValue, i32 0, i32 0
  %0 = load ptr, ptr %fArray, align 8
  %1 = load i32, ptr %index.addr, align 4
  %idxprom = sext i32 %1 to i64
  %arrayidx = getelementptr inbounds %"class.icu_75::Formattable", ptr %0, i64 %idxprom
  ret ptr %arrayidx
}

; Function Attrs: mustprogress uwtable
define internal void @_ZN6icu_75L8setErrorER10UErrorCodeS0_(ptr noundef nonnull align 4 dereferenceable(4) %ec, i32 noundef %err) #1 {
entry:
  %ec.addr = alloca ptr, align 8
  %err.addr = alloca i32, align 4
  store ptr %ec, ptr %ec.addr, align 8
  store i32 %err, ptr %err.addr, align 4
  %0 = load ptr, ptr %ec.addr, align 8
  %1 = load i32, ptr %0, align 4
  %call = call noundef signext i8 @_ZL9U_SUCCESS10UErrorCode(i32 noundef %1)
  %tobool = icmp ne i8 %call, 0
  br i1 %tobool, label %if.then, label %if.end

if.then:                                          ; preds = %entry
  %2 = load i32, ptr %err.addr, align 4
  %3 = load ptr, ptr %ec.addr, align 8
  store i32 %2, ptr %3, align 4
  br label %if.end

if.end:                                           ; preds = %if.then, %entry
  ret void
}

; Function Attrs: mustprogress nounwind uwtable
define internal noundef signext i8 @_ZL9U_FAILURE10UErrorCode(i32 noundef %code) #0 {
entry:
  %code.addr = alloca i32, align 4
  store i32 %code, ptr %code.addr, align 4
  %0 = load i32, ptr %code.addr, align 4
  %cmp = icmp sgt i32 %0, 0
  %conv = zext i1 %cmp to i8
  ret i8 %conv
}

; Function Attrs: mustprogress uwtable
define noundef ptr @_ZNK6icu_7511Formattable8getArrayERiR10UErrorCode(ptr noundef nonnull align 8 dereferenceable(112) %this, ptr noundef nonnull align 4 dereferenceable(4) %count, ptr noundef nonnull align 4 dereferenceable(4) %status) #1 align 2 {
entry:
  %retval = alloca ptr, align 8
  %this.addr = alloca ptr, align 8
  %count.addr = alloca ptr, align 8
  %status.addr = alloca ptr, align 8
  store ptr %this, ptr %this.addr, align 8
  store ptr %count, ptr %count.addr, align 8
  store ptr %status, ptr %status.addr, align 8
  %this1 = load ptr, ptr %this.addr, align 8
  %fType = getelementptr inbounds %"class.icu_75::Formattable", ptr %this1, i32 0, i32 4
  %0 = load i32, ptr %fType, align 8
  %cmp = icmp ne i32 %0, 4
  br i1 %cmp, label %if.then, label %if.end

if.then:                                          ; preds = %entry
  %1 = load ptr, ptr %status.addr, align 8
  call void @_ZN6icu_75L8setErrorER10UErrorCodeS0_(ptr noundef nonnull align 4 dereferenceable(4) %1, i32 noundef 3)
  %2 = load ptr, ptr %count.addr, align 8
  store i32 0, ptr %2, align 4
  store ptr null, ptr %retval, align 8
  br label %return

if.end:                                           ; preds = %entry
  %fValue = getelementptr inbounds %"class.icu_75::Formattable", ptr %this1, i32 0, i32 1
  %fCount = getelementptr inbounds %struct.anon, ptr %fValue, i32 0, i32 1
  %3 = load i32, ptr %fCount, align 8
  %4 = load ptr, ptr %count.addr, align 8
  store i32 %3, ptr %4, align 4
  %fValue2 = getelementptr inbounds %"class.icu_75::Formattable", ptr %this1, i32 0, i32 1
  %fArray = getelementptr inbounds %struct.anon, ptr %fValue2, i32 0, i32 0
  %5 = load ptr, ptr %fArray, align 8
  store ptr %5, ptr %retval, align 8
  br label %return

return:                                           ; preds = %if.end, %if.then
  %6 = load ptr, ptr %retval, align 8
  ret ptr %6
}

; Function Attrs: mustprogress nounwind uwtable
define linkonce_odr noundef ptr @_ZN6icu_7511Formattable16fromUFormattableEPPv(ptr noundef %fmt) #0 comdat align 2 {
entry:
  %fmt.addr = alloca ptr, align 8
  store ptr %fmt, ptr %fmt.addr, align 8
  %0 = load ptr, ptr %fmt.addr, align 8
  ret ptr %0
}

; Function Attrs: mustprogress uwtable
define ptr @ufmt_getArrayItemByIndex_75(ptr noundef %fmt, i32 noundef %n, ptr noundef %status) #1 {
entry:
  %retval = alloca ptr, align 8
  %fmt.addr = alloca ptr, align 8
  %n.addr = alloca i32, align 4
  %status.addr = alloca ptr, align 8
  %obj = alloca ptr, align 8
  %count = alloca i32, align 4
  store ptr %fmt, ptr %fmt.addr, align 8
  store i32 %n, ptr %n.addr, align 4
  store ptr %status, ptr %status.addr, align 8
  %0 = load ptr, ptr %fmt.addr, align 8
  %call = call noundef ptr @_ZN6icu_7511Formattable16fromUFormattableEPPv(ptr noundef %0)
  store ptr %call, ptr %obj, align 8
  %1 = load ptr, ptr %obj, align 8
  %2 = load ptr, ptr %status.addr, align 8
  %call1 = call noundef ptr @_ZNK6icu_7511Formattable8getArrayERiR10UErrorCode(ptr noundef nonnull align 8 dereferenceable(112) %1, ptr noundef nonnull align 4 dereferenceable(4) %count, ptr noundef nonnull align 4 dereferenceable(4) %2)
  %3 = load ptr, ptr %status.addr, align 8
  %4 = load i32, ptr %3, align 4
  %call2 = call noundef signext i8 @_ZL9U_FAILURE10UErrorCode(i32 noundef %4)
  %tobool = icmp ne i8 %call2, 0
  br i1 %tobool, label %if.then, label %if.else

if.then:                                          ; preds = %entry
  store ptr null, ptr %retval, align 8
  br label %return

if.else:                                          ; preds = %entry
  %5 = load i32, ptr %n.addr, align 4
  %cmp = icmp slt i32 %5, 0
  br i1 %cmp, label %if.then4, label %lor.lhs.false

lor.lhs.false:                                    ; preds = %if.else
  %6 = load i32, ptr %n.addr, align 4
  %7 = load i32, ptr %count, align 4
  %cmp3 = icmp sge i32 %6, %7
  br i1 %cmp3, label %if.then4, label %if.else5

if.then4:                                         ; preds = %lor.lhs.false, %if.else
  %8 = load ptr, ptr %status.addr, align 8
  call void @_ZN6icu_75L8setErrorER10UErrorCodeS0_(ptr noundef nonnull align 4 dereferenceable(4) %8, i32 noundef 8)
  store ptr null, ptr %retval, align 8
  br label %return

if.else5:                                         ; preds = %lor.lhs.false
  %9 = load ptr, ptr %obj, align 8
  %10 = load i32, ptr %n.addr, align 4
  %call6 = call noundef nonnull align 8 dereferenceable(112) ptr @_ZN6icu_7511FormattableixEi(ptr noundef nonnull align 8 dereferenceable(112) %9, i32 noundef %10)
  %call7 = call noundef ptr @_ZN6icu_7511Formattable14toUFormattableEv(ptr noundef nonnull align 8 dereferenceable(112) %call6)
  store ptr %call7, ptr %retval, align 8
  br label %return

return:                                           ; preds = %if.else5, %if.then4, %if.then
  %11 = load ptr, ptr %retval, align 8
  ret ptr %11
}