; Function Attrs: mustprogress nofree norecurse nosync nounwind willreturn memory(argmem: readwrite) uwtable
define ptr @ufmt_getArrayItemByIndex_75(ptr nocapture noundef readonly %fmt, i32 noundef %n, ptr nocapture noundef %status) local_unnamed_addr #12 {
entry:
  %fType.i = getelementptr inbounds i8, ptr %fmt, i64 40
  %0 = load i32, ptr %fType.i, align 8
  %cmp.not.i = icmp eq i32 %0, 4
  %.pr = load i32, ptr %status, align 4
  br i1 %cmp.not.i, label %_ZNK6icu_7511Formattable8getArrayERiR10UErrorCode.exit, label %if.then.i

if.then.i:                                        ; preds = %entry
  %cmp.i.i.i = icmp sgt i32 %.pr, 0
  br i1 %cmp.i.i.i, label %return, label %if.then.i.i

if.then.i.i:                                      ; preds = %if.then.i
  store i32 3, ptr %status, align 4
  br label %return

_ZNK6icu_7511Formattable8getArrayERiR10UErrorCode.exit: ; preds = %entry
  %cmp.i = icmp slt i32 %.pr, 1
  br i1 %cmp.i, label %if.else, label %return

if.else:                                          ; preds = %_ZNK6icu_7511Formattable8getArrayERiR10UErrorCode.exit
  %fCount.i = getelementptr inbounds i8, ptr %fmt, i64 16
  %1 = load i32, ptr %fCount.i, align 8
  %cmp = icmp sgt i32 %n, -1
  %cmp3.not = icmp sgt i32 %1, %n
  %or.cond = select i1 %cmp, i1 %cmp3.not, i1 false
  br i1 %or.cond, label %if.else5, label %if.then.i6

if.then.i6:                                       ; preds = %if.else
  store i32 8, ptr %status, align 4
  br label %return

if.else5:                                         ; preds = %if.else
  %fValue.i8 = getelementptr inbounds i8, ptr %fmt, i64 8
  %2 = load ptr, ptr %fValue.i8, align 8
  %idxprom.i = zext nneg i32 %n to i64
  %arrayidx.i = getelementptr inbounds %"class.icu_75::Formattable", ptr %2, i64 %idxprom.i
  br label %return

return:                                           ; preds = %if.then.i.i, %if.then.i, %if.then.i6, %_ZNK6icu_7511Formattable8getArrayERiR10UErrorCode.exit, %if.else5
  %retval.0 = phi ptr [ %arrayidx.i, %if.else5 ], [ null, %_ZNK6icu_7511Formattable8getArrayERiR10UErrorCode.exit ], [ null, %if.then.i6 ], [ null, %if.then.i ], [ null, %if.then.i.i ]
  ret ptr %retval.0
}